target datalayout = "e-m:e-p270:32:32-p271:32:32-p272:64:64-i64:64-i128:128-f80:128-n8:16:32:64-S128"
target triple = "x86_64-pc-linux-gnu"

%"class.igl::opengl::ViewerData" = type { %"class.Eigen::Matrix.3", %"class.Eigen::Matrix.12", %"class.Eigen::Matrix.3", %"class.Eigen::Matrix.3", %"class.Eigen::Matrix.3", %"class.Eigen::Matrix.3", %"class.Eigen::Matrix.3", %"class.Eigen::Matrix.3", %"class.Eigen::Matrix.3", %"class.Eigen::Matrix.3", %"class.Eigen::Matrix.3", %"class.Eigen::Matrix.12", %"class.Eigen::Matrix.21", %"class.Eigen::Matrix.21", %"class.Eigen::Matrix.21", %"class.Eigen::Matrix.21", %"class.Eigen::Matrix.3", %"class.Eigen::Matrix.3", %"class.Eigen::Matrix.3", %"class.Eigen::Matrix.3", %"class.Eigen::Matrix.3", %"class.std::vector", %"class.std::vector", %"class.std::vector", i32, i8, i8, i8, i32, i32, i32, i32, i32, i32, i32, i32, i32, i32, float, float, float, %"class.Eigen::Matrix.30", %"class.Eigen::Matrix.30", float, i32, [4 x i8], %"class.igl::opengl::MeshGL" }
%"class.Eigen::Matrix.12" = type { %"class.Eigen::PlainObjectBase.13" }
%"class.Eigen::PlainObjectBase.13" = type { %"class.Eigen::DenseStorage.20" }
%"class.Eigen::DenseStorage.20" = type { ptr, i64, i64 }
%"class.Eigen::Matrix.21" = type { %"class.Eigen::PlainObjectBase.22" }
%"class.Eigen::PlainObjectBase.22" = type { %"class.Eigen::DenseStorage.29" }
%"class.Eigen::DenseStorage.29" = type { ptr, i64, i64 }
%"class.Eigen::Matrix.3" = type { %"class.Eigen::PlainObjectBase.4" }
%"class.Eigen::PlainObjectBase.4" = type { %"class.Eigen::DenseStorage.11" }
%"class.Eigen::DenseStorage.11" = type { ptr, i64, i64 }
%"class.std::vector" = type { %"struct.std::_Vector_base" }
%"struct.std::_Vector_base" = type { %"struct.std::_Vector_base<std::__cxx11::basic_string<char>, std::allocator<std::__cxx11::basic_string<char>>>::_Vector_impl" }
%"struct.std::_Vector_base<std::__cxx11::basic_string<char>, std::allocator<std::__cxx11::basic_string<char>>>::_Vector_impl" = type { %"struct.std::_Vector_base<std::__cxx11::basic_string<char>, std::allocator<std::__cxx11::basic_string<char>>>::_Vector_impl_data" }
%"struct.std::_Vector_base<std::__cxx11::basic_string<char>, std::allocator<std::__cxx11::basic_string<char>>>::_Vector_impl_data" = type { ptr, ptr, ptr }
%"class.Eigen::Matrix.30" = type { %"class.Eigen::PlainObjectBase.31" }
%"class.Eigen::PlainObjectBase.31" = type { %"class.Eigen::DenseStorage.38" }
%"class.Eigen::DenseStorage.38" = type { %"struct.Eigen::internal::plain_array.39" }
%"struct.Eigen::internal::plain_array.39" = type { [4 x float] }
%"class.igl::opengl::MeshGL" = type <{ i8, [3 x i8], i32, i32, i32, i32, i32, i32, i32, i32, i32, i32, i32, i32, i32, i32, i32, i32, i32, i32, i32, i32, i32, %"class.Eigen::Matrix.40", %"class.Eigen::Matrix.40", %"class.Eigen::Matrix.40", %"class.Eigen::Matrix.40", %"class.Eigen::Matrix.40", %"class.Eigen::Matrix.40", %"class.Eigen::Matrix.40", %"class.Eigen::Matrix.40", %"class.Eigen::Matrix.40", %"class.Eigen::Matrix.40", %"struct.igl::opengl::MeshGL::TextGL", %"struct.igl::opengl::MeshGL::TextGL", %"struct.igl::opengl::MeshGL::TextGL", i32, i32, i32, i32, i32, [4 x i8], %"class.Eigen::Matrix.58", %"class.Eigen::Matrix.49", %"class.Eigen::Matrix.49", %"class.Eigen::Matrix.49", i32, [4 x i8] }>
%"class.Eigen::Matrix.40" = type { %"class.Eigen::PlainObjectBase.41" }
%"class.Eigen::PlainObjectBase.41" = type { %"class.Eigen::DenseStorage.48" }
%"class.Eigen::DenseStorage.48" = type { ptr, i64, i64 }
%"struct.igl::opengl::MeshGL::TextGL" = type { i32, i32, i32, i32, i32, i32, %"class.Eigen::Matrix.40", %"class.Eigen::Matrix.40", %"class.Eigen::Matrix.40", %"class.Eigen::Matrix.49" }
%"class.Eigen::Matrix.58" = type { %"class.Eigen::PlainObjectBase.59" }
%"class.Eigen::PlainObjectBase.59" = type { %"class.Eigen::DenseStorage.66" }
%"class.Eigen::DenseStorage.66" = type { ptr, i64 }
%"class.Eigen::Matrix.49" = type { %"class.Eigen::PlainObjectBase.50" }
%"class.Eigen::PlainObjectBase.50" = type { %"class.Eigen::DenseStorage.57" }
%"class.Eigen::DenseStorage.57" = type { ptr, i64, i64 }

; Function Attrs: mustprogress nounwind uwtable
define dso_local void @_ZN3igl6opengl10ViewerData11set_visibleEbj(ptr noundef nonnull align 8 dereferenceable(1488) %0, i1 noundef zeroext %1, i32 noundef %2) #1 align 2 {
  %4 = alloca ptr, align 8
  %5 = alloca i8, align 1
  %6 = alloca i32, align 4
  store ptr %0, ptr %4, align 8, !tbaa !21
  %7 = zext i1 %1 to i8
  store i8 %7, ptr %5, align 1, !tbaa !99
  store i32 %2, ptr %6, align 4, !tbaa !88
  %8 = load ptr, ptr %4, align 8
  %9 = load i8, ptr %5, align 1, !tbaa !99, !range !100, !noundef !101
  %10 = trunc i8 %9 to i1
  br i1 %10, label %11, label %16

11:                                               ; preds = %3
  %12 = load i32, ptr %6, align 4, !tbaa !88
  %13 = getelementptr inbounds nuw %"class.igl::opengl::ViewerData", ptr %8, i32 0, i32 28
  %14 = load i32, ptr %13, align 8, !tbaa !63
  %15 = or i32 %14, %12
  store i32 %15, ptr %13, align 8, !tbaa !63
  br label %22

16:                                               ; preds = %3
  %17 = load i32, ptr %6, align 4, !tbaa !88
  %18 = xor i32 %17, -1
  %19 = getelementptr inbounds nuw %"class.igl::opengl::ViewerData", ptr %8, i32 0, i32 28
  %20 = load i32, ptr %19, align 8, !tbaa !63
  %21 = and i32 %20, %18
  store i32 %21, ptr %19, align 8, !tbaa !63
  br label %22

22:                                               ; preds = %16, %11
  ret void
}