; Function Attrs: mustprogress nofree norecurse nosync nounwind willreturn memory(argmem: readwrite) uwtable
define dso_local void @_ZN3igl6opengl10ViewerData11set_visibleEbj(ptr noundef nonnull align 8 captures(none) dereferenceable(1488) %0, i1 noundef zeroext %1, i32 noundef %2) local_unnamed_addr #4 align 2 {
  br i1 %1, label %4, label %8

4:                                                ; preds = %3
  %5 = getelementptr inbounds nuw i8, ptr %0, i64 584
  %6 = load i32, ptr %5, align 8, !tbaa !49
  %7 = or i32 %6, %2
  store i32 %7, ptr %5, align 8, !tbaa !49
  br label %13

8:                                                ; preds = %3
  %9 = xor i32 %2, -1
  %10 = getelementptr inbounds nuw i8, ptr %0, i64 584
  %11 = load i32, ptr %10, align 8, !tbaa !49
  %12 = and i32 %11, %9
  store i32 %12, ptr %10, align 8, !tbaa !49
  br label %13

13:                                               ; preds = %8, %4
  ret void
}